; Function Attrs: nounwind uwtable
define internal noundef i32 @_foreach_filter_modes(ptr noundef %0, ptr noundef %1) #0 {
  %3 = load ptr, ptr @helper_features, align 8
  %4 = tail call ptr @list_find_first(ptr noundef %3, ptr noundef nonnull @_cmp_features, ptr noundef %0) #10
  %.not = icmp eq ptr %4, null
  br i1 %.not, label %7, label %5

5:                                                ; preds = %2
  %6 = tail call ptr @xstrdup(ptr noundef %0) #10
  tail call void @list_append(ptr noundef %1, ptr noundef %6) #10
  br label %7

7:                                                ; preds = %5, %2
  ret i32 0
}